target datalayout = "e-m:e-p270:32:32-p271:32:32-p272:64:64-i64:64-i128:128-f80:128-n8:16:32:64-S128"
target triple = "x86_64-pc-linux-gnu"

@j2d_glUseProgramObjectARB = external global ptr, align 8
@j2d_glEnable = external global ptr, align 8
@j2d_glBindTexture = external global ptr, align 8
@j2d_glTexSubImage1D = external global ptr, align 8
@j2d_glGetUniformLocationARB = external global ptr, align 8
@multiGradientTexID = internal global i32 0, align 4
@.str.21 = private unnamed_addr constant [10 x i8] c"fractions\00", align 1
@j2d_glUniform1fvARB = external global ptr, align 8
@.str.22 = private unnamed_addr constant [13 x i8] c"scaleFactors\00", align 1

; Function Attrs: nounwind uwtable
define internal void @OGLPaints_SetMultiGradientPaint(i32 noundef %0, i32 noundef %1, ptr noundef %2, ptr noundef %3) #0 {
  %5 = alloca i32, align 4
  %6 = alloca i32, align 4
  %7 = alloca ptr, align 8
  %8 = alloca ptr, align 8
  %9 = alloca i32, align 4
  %10 = alloca [11 x float], align 16
  %11 = alloca ptr, align 8
  %12 = alloca ptr, align 8
  %13 = alloca i32, align 4
  %14 = alloca i32, align 4
  %15 = alloca [12 x float], align 16
  store i32 %0, ptr %5, align 4
  store i32 %1, ptr %6, align 4
  store ptr %2, ptr %7, align 8
  store ptr %3, ptr %8, align 8
  %16 = load i32, ptr %6, align 4
  %17 = icmp sgt i32 %16, 4
  %18 = select i1 %17, i64 12, i64 4
  %19 = trunc i64 %18 to i32
  store i32 %19, ptr %9, align 4
  %20 = load ptr, ptr %7, align 8
  store ptr %20, ptr %11, align 8
  %21 = load ptr, ptr %8, align 8
  store ptr %21, ptr %12, align 8
  %22 = load ptr, ptr @j2d_glUseProgramObjectARB, align 8
  %23 = load i32, ptr %5, align 4
  call void %22(i32 noundef %23)
  %24 = load ptr, ptr @j2d_glGetUniformLocationARB, align 8
  %25 = load i32, ptr %5, align 4
  %26 = call i32 %24(i32 noundef %25, ptr noundef @.str.21)
  store i32 %26, ptr %13, align 4
  %27 = load i32, ptr %6, align 4
  %28 = load i32, ptr %9, align 4
  %29 = icmp slt i32 %27, %28
  br i1 %29, label %30, label %36

30:                                               ; preds = %4
  %31 = getelementptr inbounds [12 x float], ptr %15, i64 0, i64 0
  call void @llvm.memset.p0.i64(ptr align 16 %31, i8 0, i64 48, i1 false)
  %32 = load ptr, ptr @j2d_glUniform1fvARB, align 8
  %33 = load i32, ptr %13, align 4
  %34 = load i32, ptr %9, align 4
  %35 = getelementptr inbounds [12 x float], ptr %15, i64 0, i64 0
  call void %32(i32 noundef %33, i32 noundef %34, ptr noundef %35)
  br label %36

36:                                               ; preds = %30, %4
  %37 = load ptr, ptr @j2d_glUniform1fvARB, align 8
  %38 = load i32, ptr %13, align 4
  %39 = load i32, ptr %6, align 4
  %40 = load ptr, ptr %11, align 8
  call void %37(i32 noundef %38, i32 noundef %39, ptr noundef %40)
  %41 = load ptr, ptr @j2d_glGetUniformLocationARB, align 8
  %42 = load i32, ptr %5, align 4
  %43 = call i32 %41(i32 noundef %42, ptr noundef @.str.22)
  store i32 %43, ptr %13, align 4
  store i32 0, ptr %14, align 4
  br label %44

44:                                               ; preds = %66, %36
  %45 = load i32, ptr %14, align 4
  %46 = load i32, ptr %6, align 4
  %47 = sub nsw i32 %46, 1
  %48 = icmp slt i32 %45, %47
  br i1 %48, label %49, label %69

49:                                               ; preds = %44
  %50 = load ptr, ptr %11, align 8
  %51 = load i32, ptr %14, align 4
  %52 = add nsw i32 %51, 1
  %53 = sext i32 %52 to i64
  %54 = getelementptr inbounds float, ptr %50, i64 %53
  %55 = load float, ptr %54, align 4
  %56 = load ptr, ptr %11, align 8
  %57 = load i32, ptr %14, align 4
  %58 = sext i32 %57 to i64
  %59 = getelementptr inbounds float, ptr %56, i64 %58
  %60 = load float, ptr %59, align 4
  %61 = fsub float %55, %60
  %62 = fdiv float 1.000000e+00, %61
  %63 = load i32, ptr %14, align 4
  %64 = sext i32 %63 to i64
  %65 = getelementptr inbounds [11 x float], ptr %10, i64 0, i64 %64
  store float %62, ptr %65, align 4
  br label %66

66:                                               ; preds = %49
  %67 = load i32, ptr %14, align 4
  %68 = add nsw i32 %67, 1
  store i32 %68, ptr %14, align 4
  br label %44, !llvm.loop !6

69:                                               ; preds = %44
  br label %70

70:                                               ; preds = %79, %69
  %71 = load i32, ptr %14, align 4
  %72 = load i32, ptr %9, align 4
  %73 = sub nsw i32 %72, 1
  %74 = icmp slt i32 %71, %73
  br i1 %74, label %75, label %82

75:                                               ; preds = %70
  %76 = load i32, ptr %14, align 4
  %77 = sext i32 %76 to i64
  %78 = getelementptr inbounds [11 x float], ptr %10, i64 0, i64 %77
  store float 0.000000e+00, ptr %78, align 4
  br label %79

79:                                               ; preds = %75
  %80 = load i32, ptr %14, align 4
  %81 = add nsw i32 %80, 1
  store i32 %81, ptr %14, align 4
  br label %70, !llvm.loop !8

82:                                               ; preds = %70
  %83 = load ptr, ptr @j2d_glUniform1fvARB, align 8
  %84 = load i32, ptr %13, align 4
  %85 = load i32, ptr %9, align 4
  %86 = sub nsw i32 %85, 1
  %87 = getelementptr inbounds [11 x float], ptr %10, i64 0, i64 0
  call void %83(i32 noundef %84, i32 noundef %86, ptr noundef %87)
  %88 = load ptr, ptr @j2d_glEnable, align 8
  call void %88(i32 noundef 3552)
  %89 = load ptr, ptr @j2d_glBindTexture, align 8
  %90 = load i32, ptr @multiGradientTexID, align 4
  call void %89(i32 noundef 3552, i32 noundef %90)
  %91 = load ptr, ptr @j2d_glTexSubImage1D, align 8
  %92 = load i32, ptr %6, align 4
  %93 = load ptr, ptr %12, align 8
  call void %91(i32 noundef 3552, i32 noundef 0, i32 noundef 0, i32 noundef %92, i32 noundef 32993, i32 noundef 33639, ptr noundef %93)
  %94 = load i32, ptr %6, align 4
  %95 = icmp slt i32 %94, 16
  br i1 %95, label %96, label %103

96:                                               ; preds = %82
  %97 = load ptr, ptr @j2d_glTexSubImage1D, align 8
  %98 = load ptr, ptr %12, align 8
  %99 = load i32, ptr %6, align 4
  %100 = sub nsw i32 %99, 1
  %101 = sext i32 %100 to i64
  %102 = getelementptr inbounds i32, ptr %98, i64 %101
  call void %97(i32 noundef 3552, i32 noundef 0, i32 noundef 15, i32 noundef 1, i32 noundef 32993, i32 noundef 33639, ptr noundef %102)
  br label %103

103:                                              ; preds = %96, %82
  ret void
}