; Function Attrs: nounwind uwtable
define internal fastcc void @OGLPaints_SetMultiGradientPaint(i32 noundef %0, i32 noundef %1, ptr noundef %2, ptr noundef %3) unnamed_addr #0 {
  %5 = alloca [11 x float], align 16
  %6 = alloca [12 x float], align 16
  %7 = icmp sgt i32 %1, 4
  %8 = select i1 %7, i32 12, i32 4
  %9 = load ptr, ptr @j2d_glUseProgramObjectARB, align 8
  tail call void %9(i32 noundef %0) #6
  %10 = load ptr, ptr @j2d_glGetUniformLocationARB, align 8
  %11 = tail call i32 %10(i32 noundef %0, ptr noundef nonnull @.str.21) #6
  %12 = icmp sgt i32 %8, %1
  br i1 %12, label %13, label %15

13:                                               ; preds = %4
  call void @llvm.memset.p0.i64(ptr noundef nonnull align 16 dereferenceable(48) %6, i8 0, i64 48, i1 false)
  %14 = load ptr, ptr @j2d_glUniform1fvARB, align 8
  call void %14(i32 noundef %11, i32 noundef %8, ptr noundef nonnull %6) #6
  br label %15

15:                                               ; preds = %13, %4
  %16 = load ptr, ptr @j2d_glUniform1fvARB, align 8
  call void %16(i32 noundef %11, i32 noundef %1, ptr noundef %2) #6
  %17 = load ptr, ptr @j2d_glGetUniformLocationARB, align 8
  %18 = call i32 %17(i32 noundef %0, ptr noundef nonnull @.str.22) #6
  %19 = add i32 %1, -1
  %20 = icmp sgt i32 %1, 1
  br i1 %20, label %.lr.ph.preheader, label %.lr.ph37.preheader

.lr.ph.preheader:                                 ; preds = %15
  %wide.trip.count = zext nneg i32 %19 to i64
  %.pre = load float, ptr %2, align 4
  br label %.lr.ph

.preheader:                                       ; preds = %.lr.ph
  %21 = add nsw i32 %8, -1
  %22 = icmp ult i32 %19, %21
  br i1 %22, label %.lr.ph37.preheader, label %._crit_edge

.lr.ph37.preheader:                               ; preds = %15, %.preheader
  %23 = phi i32 [ %21, %.preheader ], [ 3, %15 ]
  %.0.lcssa44 = phi i32 [ %19, %.preheader ], [ 0, %15 ]
  %24 = zext nneg i32 %.0.lcssa44 to i64
  %25 = shl nuw nsw i64 %24, 2
  %scevgep = getelementptr i8, ptr %5, i64 %25
  %26 = add nsw i32 %8, -2
  %27 = sub i32 %26, %.0.lcssa44
  %28 = zext i32 %27 to i64
  %29 = shl nuw nsw i64 %28, 2
  %30 = add nuw nsw i64 %29, 4
  call void @llvm.memset.p0.i64(ptr noundef nonnull align 4 dereferenceable(1) %scevgep, i8 0, i64 %30, i1 false)
  br label %._crit_edge

.lr.ph:                                           ; preds = %.lr.ph.preheader, %.lr.ph
  %31 = phi float [ %.pre, %.lr.ph.preheader ], [ %33, %.lr.ph ]
  %indvars.iv = phi i64 [ 0, %.lr.ph.preheader ], [ %indvars.iv.next, %.lr.ph ]
  %indvars.iv.next = add nuw nsw i64 %indvars.iv, 1
  %32 = getelementptr inbounds float, ptr %2, i64 %indvars.iv.next
  %33 = load float, ptr %32, align 4
  %34 = fsub float %33, %31
  %35 = fdiv float 1.000000e+00, %34
  %36 = getelementptr inbounds [11 x float], ptr %5, i64 0, i64 %indvars.iv
  store float %35, ptr %36, align 4
  %exitcond.not = icmp eq i64 %indvars.iv.next, %wide.trip.count
  br i1 %exitcond.not, label %.preheader, label %.lr.ph, !llvm.loop !6

._crit_edge:                                      ; preds = %.lr.ph37.preheader, %.preheader
  %37 = phi i32 [ %23, %.lr.ph37.preheader ], [ %21, %.preheader ]
  %38 = load ptr, ptr @j2d_glUniform1fvARB, align 8
  call void %38(i32 noundef %18, i32 noundef %37, ptr noundef nonnull %5) #6
  %39 = load ptr, ptr @j2d_glEnable, align 8
  call void %39(i32 noundef 3552) #6
  %40 = load ptr, ptr @j2d_glBindTexture, align 8
  %41 = load i32, ptr @multiGradientTexID, align 4
  call void %40(i32 noundef 3552, i32 noundef %41) #6
  %42 = load ptr, ptr @j2d_glTexSubImage1D, align 8
  call void %42(i32 noundef 3552, i32 noundef 0, i32 noundef 0, i32 noundef %1, i32 noundef 32993, i32 noundef 33639, ptr noundef %3) #6
  %43 = icmp slt i32 %1, 16
  br i1 %43, label %44, label %48

44:                                               ; preds = %._crit_edge
  %45 = load ptr, ptr @j2d_glTexSubImage1D, align 8
  %46 = sext i32 %19 to i64
  %47 = getelementptr inbounds i32, ptr %3, i64 %46
  call void %45(i32 noundef 3552, i32 noundef 0, i32 noundef 15, i32 noundef 1, i32 noundef 32993, i32 noundef 33639, ptr noundef %47) #6
  br label %48

48:                                               ; preds = %44, %._crit_edge
  ret void
}